; Function Attrs: mustprogress nofree norecurse nosync nounwind willreturn memory(argmem: write) uwtable
define void @_ZN5boost9iostreams6detail11gzip_footer5resetEv(ptr nocapture noundef nonnull writeonly align 4 dereferenceable(16) %0) local_unnamed_addr #6 align 2 {
  %2 = getelementptr inbounds nuw i8, ptr %0, i64 12
  store i32 0, ptr %2, align 4, !tbaa !35
  %3 = getelementptr inbounds nuw i8, ptr %0, i64 4
  store i32 0, ptr %3, align 4, !tbaa !37
  store i32 0, ptr %0, align 4, !tbaa !36
  %4 = getelementptr inbounds nuw i8, ptr %0, i64 8
  store i32 1, ptr %4, align 4, !tbaa !33
  ret void
}